target datalayout = "e-m:e-p270:32:32-p271:32:32-p272:64:64-i64:64-i128:128-f80:128-n8:16:32:64-S128"
target triple = "x86_64-pc-linux-gnu"

%struct.sharedObjectsStruct = type { ptr, ptr, ptr, ptr, ptr, ptr, ptr, ptr, [4 x ptr], [4 x ptr], [4 x ptr], [4 x ptr], ptr, ptr, ptr, ptr, ptr, ptr, ptr, ptr, ptr, ptr, ptr, ptr, ptr, ptr, ptr, ptr, ptr, ptr, ptr, ptr, ptr, ptr, ptr, ptr, ptr, ptr, ptr, ptr, ptr, ptr, ptr, ptr, ptr, ptr, ptr, ptr, ptr, ptr, ptr, ptr, ptr, ptr, ptr, ptr, ptr, ptr, ptr, ptr, ptr, ptr, ptr, ptr, ptr, ptr, ptr, ptr, ptr, ptr, ptr, ptr, ptr, ptr, ptr, ptr, ptr, ptr, ptr, ptr, ptr, ptr, ptr, ptr, ptr, ptr, ptr, ptr, [10 x ptr], [10000 x ptr], [32 x ptr], [32 x ptr], [32 x ptr], [32 x ptr], ptr, ptr }
%struct.redisObject = type { i32, i32, ptr }
%struct.client = type { i64, i64, ptr, i8, i8, i8, i8, i32, ptr, ptr, ptr, ptr, ptr, i64, i64, i32, ptr, i32, i32, ptr, i64, ptr, ptr, ptr, ptr, ptr, i32, i32, i64, ptr, i64, ptr, i64, i64, i64, i32, ptr, i64, i64, i32, i32, i32, i32, i64, i64, ptr, i64, i64, i64, i64, i64, i64, i64, i64, [41 x i8], i32, ptr, i32, i32, i64, %struct.multiState, %struct.blockingState, i64, ptr, ptr, ptr, ptr, ptr, ptr, ptr, ptr, ptr, ptr, ptr, ptr, ptr, ptr, i64, ptr, i64, i32, ptr, ptr, ptr, i64, %struct.listNode, i64, i64, i32, i64, ptr }
%struct.multiState = type { ptr, i32, i32, i32, i64, i32 }
%struct.blockingState = type { i32, i64, i32, ptr, i32, i32, i64, ptr, ptr, i64 }
%struct.listNode = type { ptr, ptr, ptr }
%struct.hashTypeIterator = type { ptr, i32, ptr, ptr, ptr, i64, ptr, ptr }

@.str.2 = private unnamed_addr constant [9 x i8] c"t_hash.c\00", align 1
@.str.11 = private unnamed_addr constant [22 x i8] c"Unknown hash encoding\00", align 1
@shared = external global %struct.sharedObjectsStruct, align 8
@.str.54 = private unnamed_addr constant [16 x i8] c"count == length\00", align 1

; Function Attrs: nounwind uwtable
define dso_local void @hashTypeReleaseIterator(ptr noundef %0) #1 {
  %2 = alloca ptr, align 8
  store ptr %0, ptr %2, align 8, !tbaa !10
  %3 = load ptr, ptr %2, align 8, !tbaa !10
  %4 = getelementptr inbounds nuw %struct.hashTypeIterator, ptr %3, i32 0, i32 1
  %5 = load i32, ptr %4, align 8, !tbaa !133
  %6 = icmp eq i32 %5, 2
  br i1 %6, label %7, label %11

7:                                                ; preds = %1
  %8 = load ptr, ptr %2, align 8, !tbaa !10
  %9 = getelementptr inbounds nuw %struct.hashTypeIterator, ptr %8, i32 0, i32 6
  %10 = load ptr, ptr %9, align 8, !tbaa !138
  call void @dictReleaseIterator(ptr noundef %10)
  br label %11

11:                                               ; preds = %7, %1
  %12 = load ptr, ptr %2, align 8, !tbaa !10
  call void @zfree(ptr noundef %12)
  ret void
}

; Function Attrs: nounwind uwtable
define dso_local ptr @hashTypeInitIterator(ptr noundef %0) #1 {
  %2 = alloca ptr, align 8
  %3 = alloca ptr, align 8
  store ptr %0, ptr %2, align 8, !tbaa !15
  call void @llvm.lifetime.start.p0(i64 8, ptr %3) #12
  %4 = call noalias ptr @zmalloc(i64 noundef 64) #15
  store ptr %4, ptr %3, align 8, !tbaa !10
  %5 = load ptr, ptr %2, align 8, !tbaa !15
  %6 = load ptr, ptr %3, align 8, !tbaa !10
  %7 = getelementptr inbounds nuw %struct.hashTypeIterator, ptr %6, i32 0, i32 0
  store ptr %5, ptr %7, align 8, !tbaa !130
  %8 = load ptr, ptr %2, align 8, !tbaa !15
  %9 = load i32, ptr %8, align 8
  %10 = lshr i32 %9, 4
  %11 = and i32 %10, 15
  %12 = load ptr, ptr %3, align 8, !tbaa !10
  %13 = getelementptr inbounds nuw %struct.hashTypeIterator, ptr %12, i32 0, i32 1
  store i32 %11, ptr %13, align 8, !tbaa !133
  %14 = load ptr, ptr %3, align 8, !tbaa !10
  %15 = getelementptr inbounds nuw %struct.hashTypeIterator, ptr %14, i32 0, i32 1
  %16 = load i32, ptr %15, align 8, !tbaa !133
  %17 = icmp eq i32 %16, 11
  br i1 %17, label %23, label %18

18:                                               ; preds = %1
  %19 = load ptr, ptr %3, align 8, !tbaa !10
  %20 = getelementptr inbounds nuw %struct.hashTypeIterator, ptr %19, i32 0, i32 1
  %21 = load i32, ptr %20, align 8, !tbaa !133
  %22 = icmp eq i32 %21, 12
  br i1 %22, label %23, label %32

23:                                               ; preds = %18, %1
  %24 = load ptr, ptr %3, align 8, !tbaa !10
  %25 = getelementptr inbounds nuw %struct.hashTypeIterator, ptr %24, i32 0, i32 2
  store ptr null, ptr %25, align 8, !tbaa !134
  %26 = load ptr, ptr %3, align 8, !tbaa !10
  %27 = getelementptr inbounds nuw %struct.hashTypeIterator, ptr %26, i32 0, i32 3
  store ptr null, ptr %27, align 8, !tbaa !135
  %28 = load ptr, ptr %3, align 8, !tbaa !10
  %29 = getelementptr inbounds nuw %struct.hashTypeIterator, ptr %28, i32 0, i32 4
  store ptr null, ptr %29, align 8, !tbaa !136
  %30 = load ptr, ptr %3, align 8, !tbaa !10
  %31 = getelementptr inbounds nuw %struct.hashTypeIterator, ptr %30, i32 0, i32 5
  store i64 281474976710656, ptr %31, align 8, !tbaa !137
  br label %46

32:                                               ; preds = %18
  %33 = load ptr, ptr %3, align 8, !tbaa !10
  %34 = getelementptr inbounds nuw %struct.hashTypeIterator, ptr %33, i32 0, i32 1
  %35 = load i32, ptr %34, align 8, !tbaa !133
  %36 = icmp eq i32 %35, 2
  br i1 %36, label %37, label %44

37:                                               ; preds = %32
  %38 = load ptr, ptr %2, align 8, !tbaa !15
  %39 = getelementptr inbounds nuw %struct.redisObject, ptr %38, i32 0, i32 2
  %40 = load ptr, ptr %39, align 8, !tbaa !17
  %41 = call ptr @dictGetIterator(ptr noundef %40)
  %42 = load ptr, ptr %3, align 8, !tbaa !10
  %43 = getelementptr inbounds nuw %struct.hashTypeIterator, ptr %42, i32 0, i32 6
  store ptr %41, ptr %43, align 8, !tbaa !138
  br label %45

44:                                               ; preds = %32
  call void (ptr, i32, ptr, ...) @_serverPanic(ptr noundef @.str.2, i32 noundef 1345, ptr noundef @.str.11)
  call void @abort() #14
  unreachable

45:                                               ; preds = %37
  br label %46

46:                                               ; preds = %45, %23
  %47 = load ptr, ptr %3, align 8, !tbaa !10
  call void @llvm.lifetime.end.p0(i64 8, ptr %3) #12
  ret ptr %47
}

; Function Attrs: nounwind uwtable
define dso_local void @genericHgetallCommand(ptr noundef %0, i32 noundef %1) #1 {
  %3 = alloca ptr, align 8
  %4 = alloca i32, align 4
  %5 = alloca ptr, align 8
  %6 = alloca ptr, align 8
  %7 = alloca i32, align 4
  %8 = alloca i32, align 4
  %9 = alloca ptr, align 8
  %10 = alloca i32, align 4
  store ptr %0, ptr %3, align 8, !tbaa !124
  store i32 %1, ptr %4, align 4, !tbaa !13
  call void @llvm.lifetime.start.p0(i64 8, ptr %5) #12
  call void @llvm.lifetime.start.p0(i64 8, ptr %6) #12
  call void @llvm.lifetime.start.p0(i64 4, ptr %7) #12
  call void @llvm.lifetime.start.p0(i64 4, ptr %8) #12
  store i32 0, ptr %8, align 4, !tbaa !13
  call void @llvm.lifetime.start.p0(i64 8, ptr %9) #12
  %11 = load i32, ptr %4, align 4, !tbaa !13
  %12 = and i32 %11, 1
  %13 = icmp ne i32 %12, 0
  br i1 %13, label %14, label %25

14:                                               ; preds = %2
  %15 = load i32, ptr %4, align 4, !tbaa !13
  %16 = and i32 %15, 2
  %17 = icmp ne i32 %16, 0
  br i1 %17, label %18, label %25

18:                                               ; preds = %14
  %19 = load ptr, ptr %3, align 8, !tbaa !124
  %20 = getelementptr inbounds nuw %struct.client, ptr %19, i32 0, i32 7
  %21 = load i32, ptr %20, align 4, !tbaa !169
  %22 = sext i32 %21 to i64
  %23 = getelementptr inbounds [4 x ptr], ptr getelementptr inbounds nuw (%struct.sharedObjectsStruct, ptr @shared, i32 0, i32 10), i64 0, i64 %22
  %24 = load ptr, ptr %23, align 8, !tbaa !15
  br label %27

25:                                               ; preds = %14, %2
  %26 = load ptr, ptr getelementptr inbounds nuw (%struct.sharedObjectsStruct, ptr @shared, i32 0, i32 12), align 8, !tbaa !177
  br label %27

27:                                               ; preds = %25, %18
  %28 = phi ptr [ %24, %18 ], [ %26, %25 ]
  store ptr %28, ptr %9, align 8, !tbaa !15
  %29 = load ptr, ptr %3, align 8, !tbaa !124
  %30 = load ptr, ptr %3, align 8, !tbaa !124
  %31 = getelementptr inbounds nuw %struct.client, ptr %30, i32 0, i32 16
  %32 = load ptr, ptr %31, align 8, !tbaa !155
  %33 = getelementptr inbounds ptr, ptr %32, i64 1
  %34 = load ptr, ptr %33, align 8, !tbaa !15
  %35 = load ptr, ptr %9, align 8, !tbaa !15
  %36 = call ptr @lookupKeyReadOrReply(ptr noundef %29, ptr noundef %34, ptr noundef %35)
  store ptr %36, ptr %5, align 8, !tbaa !15
  %37 = icmp eq ptr %36, null
  br i1 %37, label %43, label %38

38:                                               ; preds = %27
  %39 = load ptr, ptr %3, align 8, !tbaa !124
  %40 = load ptr, ptr %5, align 8, !tbaa !15
  %41 = call i32 @checkType(ptr noundef %39, ptr noundef %40, i32 noundef 4)
  %42 = icmp ne i32 %41, 0
  br i1 %42, label %43, label %44

43:                                               ; preds = %38, %27
  store i32 1, ptr %10, align 4
  br label %120

44:                                               ; preds = %38
  %45 = load ptr, ptr %5, align 8, !tbaa !15
  %46 = call i64 @hashTypeLength(ptr noundef %45, i32 noundef 1)
  %47 = trunc i64 %46 to i32
  store i32 %47, ptr %7, align 4, !tbaa !13
  %48 = icmp eq i32 %47, 0
  br i1 %48, label %49, label %52

49:                                               ; preds = %44
  %50 = load ptr, ptr %3, align 8, !tbaa !124
  %51 = load ptr, ptr %9, align 8, !tbaa !15
  call void @addReply(ptr noundef %50, ptr noundef %51)
  store i32 1, ptr %10, align 4
  br label %120

52:                                               ; preds = %44
  %53 = load i32, ptr %4, align 4, !tbaa !13
  %54 = and i32 %53, 1
  %55 = icmp ne i32 %54, 0
  br i1 %55, label %56, label %64

56:                                               ; preds = %52
  %57 = load i32, ptr %4, align 4, !tbaa !13
  %58 = and i32 %57, 2
  %59 = icmp ne i32 %58, 0
  br i1 %59, label %60, label %64

60:                                               ; preds = %56
  %61 = load ptr, ptr %3, align 8, !tbaa !124
  %62 = load i32, ptr %7, align 4, !tbaa !13
  %63 = sext i32 %62 to i64
  call void @addReplyMapLen(ptr noundef %61, i64 noundef %63)
  br label %68

64:                                               ; preds = %56, %52
  %65 = load ptr, ptr %3, align 8, !tbaa !124
  %66 = load i32, ptr %7, align 4, !tbaa !13
  %67 = sext i32 %66 to i64
  call void @addReplyArrayLen(ptr noundef %65, i64 noundef %67)
  br label %68

68:                                               ; preds = %64, %60
  %69 = load ptr, ptr %5, align 8, !tbaa !15
  %70 = call ptr @hashTypeInitIterator(ptr noundef %69)
  store ptr %70, ptr %6, align 8, !tbaa !10
  br label %71

71:                                               ; preds = %93, %68
  %72 = load ptr, ptr %6, align 8, !tbaa !10
  %73 = call i32 @hashTypeNext(ptr noundef %72, i32 noundef 1)
  %74 = icmp ne i32 %73, -1
  br i1 %74, label %75, label %94

75:                                               ; preds = %71
  %76 = load i32, ptr %4, align 4, !tbaa !13
  %77 = and i32 %76, 1
  %78 = icmp ne i32 %77, 0
  br i1 %78, label %79, label %84

79:                                               ; preds = %75
  %80 = load ptr, ptr %3, align 8, !tbaa !124
  %81 = load ptr, ptr %6, align 8, !tbaa !10
  call void @addHashIteratorCursorToReply(ptr noundef %80, ptr noundef %81, i32 noundef 1)
  %82 = load i32, ptr %8, align 4, !tbaa !13
  %83 = add nsw i32 %82, 1
  store i32 %83, ptr %8, align 4, !tbaa !13
  br label %84

84:                                               ; preds = %79, %75
  %85 = load i32, ptr %4, align 4, !tbaa !13
  %86 = and i32 %85, 2
  %87 = icmp ne i32 %86, 0
  br i1 %87, label %88, label %93

88:                                               ; preds = %84
  %89 = load ptr, ptr %3, align 8, !tbaa !124
  %90 = load ptr, ptr %6, align 8, !tbaa !10
  call void @addHashIteratorCursorToReply(ptr noundef %89, ptr noundef %90, i32 noundef 2)
  %91 = load i32, ptr %8, align 4, !tbaa !13
  %92 = add nsw i32 %91, 1
  store i32 %92, ptr %8, align 4, !tbaa !13
  br label %93

93:                                               ; preds = %88, %84
  br label %71, !llvm.loop !178

94:                                               ; preds = %71
  %95 = load ptr, ptr %6, align 8, !tbaa !10
  call void @hashTypeReleaseIterator(ptr noundef %95)
  %96 = load i32, ptr %4, align 4, !tbaa !13
  %97 = and i32 %96, 1
  %98 = icmp ne i32 %97, 0
  br i1 %98, label %99, label %106

99:                                               ; preds = %94
  %100 = load i32, ptr %4, align 4, !tbaa !13
  %101 = and i32 %100, 2
  %102 = icmp ne i32 %101, 0
  br i1 %102, label %103, label %106

103:                                              ; preds = %99
  %104 = load i32, ptr %8, align 4, !tbaa !13
  %105 = sdiv i32 %104, 2
  store i32 %105, ptr %8, align 4, !tbaa !13
  br label %106

106:                                              ; preds = %103, %99, %94
  %107 = load i32, ptr %8, align 4, !tbaa !13
  %108 = load i32, ptr %7, align 4, !tbaa !13
  %109 = icmp eq i32 %107, %108
  %110 = xor i1 %109, true
  %111 = xor i1 %110, true
  %112 = zext i1 %111 to i32
  %113 = sext i32 %112 to i64
  %114 = call i64 @llvm.expect.i64(i64 %113, i64 1)
  %115 = icmp ne i64 %114, 0
  br i1 %115, label %116, label %117

116:                                              ; preds = %106
  br label %119

117:                                              ; preds = %106
  call void @_serverAssert(ptr noundef @.str.54, ptr noundef @.str.2, i32 noundef 3057)
  call void @abort() #14
  unreachable

118:                                              ; No predecessors!
  br label %119

119:                                              ; preds = %118, %116
  store i32 0, ptr %10, align 4
  br label %120

120:                                              ; preds = %119, %49, %43
  call void @llvm.lifetime.end.p0(i64 8, ptr %9) #12
  call void @llvm.lifetime.end.p0(i64 4, ptr %8) #12
  call void @llvm.lifetime.end.p0(i64 4, ptr %7) #12
  call void @llvm.lifetime.end.p0(i64 8, ptr %6) #12
  call void @llvm.lifetime.end.p0(i64 8, ptr %5) #12
  %121 = load i32, ptr %10, align 4
  switch i32 %121, label %123 [
    i32 0, label %122
    i32 1, label %122
  ]

122:                                              ; preds = %120, %120
  ret void

123:                                              ; preds = %120
  unreachable
}