; Function Attrs: nounwind uwtable
define dso_local void @genericHgetallCommand(ptr noundef %0, i32 noundef %1) local_unnamed_addr #1 {
  %3 = and i32 %1, 1
  %.not = icmp eq i32 %3, 0
  %4 = and i32 %1, 2
  %.not34 = icmp eq i32 %4, 0
  %5 = and i32 %1, 3
  %or.cond.not = icmp eq i32 %5, 3
  br i1 %or.cond.not, label %6, label %11

6:                                                ; preds = %2
  %7 = getelementptr inbounds nuw i8, ptr %0, i64 28
  %8 = load i32, ptr %7, align 4, !tbaa !146
  %9 = sext i32 %8 to i64
  %10 = getelementptr inbounds [4 x ptr], ptr getelementptr inbounds nuw (i8, ptr @shared, i64 128), i64 0, i64 %9
  br label %11

11:                                               ; preds = %2, %6
  %.in = phi ptr [ %10, %6 ], [ getelementptr inbounds nuw (i8, ptr @shared, i64 192), %2 ]
  %12 = load ptr, ptr %.in, align 8, !tbaa !64
  %13 = getelementptr inbounds nuw i8, ptr %0, i64 96
  %14 = load ptr, ptr %13, align 8, !tbaa !132
  %15 = getelementptr inbounds nuw i8, ptr %14, i64 8
  %16 = load ptr, ptr %15, align 8, !tbaa !64
  %17 = tail call ptr @lookupKeyReadOrReply(ptr noundef %0, ptr noundef %16, ptr noundef %12) #16
  %18 = icmp eq ptr %17, null
  br i1 %18, label %60, label %19

19:                                               ; preds = %11
  %20 = tail call i32 @checkType(ptr noundef nonnull %0, ptr noundef nonnull %17, i32 noundef 4) #16
  %.not35 = icmp eq i32 %20, 0
  br i1 %.not35, label %21, label %60

21:                                               ; preds = %19
  %22 = tail call i64 @hashTypeLength(ptr noundef nonnull %17, i32 noundef 1)
  %23 = trunc i64 %22 to i32
  %24 = icmp eq i32 %23, 0
  br i1 %24, label %25, label %26

25:                                               ; preds = %21
  tail call void @addReply(ptr noundef nonnull %0, ptr noundef %12) #16
  br label %60

26:                                               ; preds = %21
  %sext37 = shl i64 %22, 32
  %27 = ashr exact i64 %sext37, 32
  br i1 %or.cond.not, label %28, label %29

28:                                               ; preds = %26
  tail call void @addReplyMapLen(ptr noundef nonnull %0, i64 noundef %27) #16
  br label %30

29:                                               ; preds = %26
  tail call void @addReplyArrayLen(ptr noundef nonnull %0, i64 noundef %27) #16
  br label %30

30:                                               ; preds = %29, %28
  %31 = tail call noalias dereferenceable_or_null(64) ptr @zmalloc(i64 noundef 64) #18
  store ptr %17, ptr %31, align 8, !tbaa !110
  %32 = load i32, ptr %17, align 8
  %33 = lshr i32 %32, 4
  %34 = and i32 %33, 15
  %35 = getelementptr inbounds nuw i8, ptr %31, i64 8
  store i32 %34, ptr %35, align 8, !tbaa !113
  switch i32 %34, label %44 [
    i32 11, label %36
    i32 12, label %36
    i32 2, label %39
  ]

36:                                               ; preds = %30, %30
  %37 = getelementptr inbounds nuw i8, ptr %31, i64 16
  %38 = getelementptr inbounds nuw i8, ptr %31, i64 40
  tail call void @llvm.memset.p0.i64(ptr noundef nonnull align 8 dereferenceable(24) %37, i8 0, i64 24, i1 false)
  store i64 281474976710656, ptr %38, align 8, !tbaa !114
  br label %hashTypeInitIterator.exit

39:                                               ; preds = %30
  %40 = getelementptr inbounds nuw i8, ptr %17, i64 8
  %41 = load ptr, ptr %40, align 8, !tbaa !10
  %42 = tail call ptr @dictGetIterator(ptr noundef %41) #16
  %43 = getelementptr inbounds nuw i8, ptr %31, i64 48
  store ptr %42, ptr %43, align 8, !tbaa !115
  br label %hashTypeInitIterator.exit

44:                                               ; preds = %30
  tail call void (ptr, i32, ptr, ...) @_serverPanic(ptr noundef nonnull @.str.2, i32 noundef 1345, ptr noundef nonnull @.str.11) #16
  tail call void @abort() #17
  unreachable

hashTypeInitIterator.exit:                        ; preds = %36, %39
  %45 = tail call i32 @hashTypeNext(ptr noundef nonnull %31, i32 noundef 1)
  %.not3843 = icmp eq i32 %45, -1
  br i1 %.not3843, label %._crit_edge, label %.lr.ph

.lr.ph:                                           ; preds = %hashTypeInitIterator.exit
  br i1 %.not, label %.lr.ph.split.us, label %.lr.ph.split

.lr.ph.split.us:                                  ; preds = %.lr.ph
  br i1 %.not34, label %.lr.ph.split.us.split.us, label %.lr.ph.split.us.split

.lr.ph.split.us.split.us:                         ; preds = %.lr.ph.split.us, %.lr.ph.split.us.split.us
  %46 = tail call i32 @hashTypeNext(ptr noundef nonnull %31, i32 noundef 1)
  %.not38.us.us = icmp eq i32 %46, -1
  br i1 %.not38.us.us, label %._crit_edge, label %.lr.ph.split.us.split.us, !llvm.loop !154

.lr.ph.split.us.split:                            ; preds = %.lr.ph.split.us, %.lr.ph.split.us.split
  %.044.us = phi i32 [ %47, %.lr.ph.split.us.split ], [ 0, %.lr.ph.split.us ]
  tail call fastcc void @addHashIteratorCursorToReply(ptr noundef nonnull %0, ptr noundef nonnull %31, i32 noundef 2)
  %47 = add nuw nsw i32 %.044.us, 1
  %48 = tail call i32 @hashTypeNext(ptr noundef nonnull %31, i32 noundef 1)
  %.not38.us = icmp eq i32 %48, -1
  br i1 %.not38.us, label %._crit_edge, label %.lr.ph.split.us.split, !llvm.loop !154

.lr.ph.split:                                     ; preds = %.lr.ph
  br i1 %.not34, label %.lr.ph.split.split.us, label %.lr.ph.split.split

.lr.ph.split.split.us:                            ; preds = %.lr.ph.split, %.lr.ph.split.split.us
  %.044.us45 = phi i32 [ %49, %.lr.ph.split.split.us ], [ 0, %.lr.ph.split ]
  tail call fastcc void @addHashIteratorCursorToReply(ptr noundef nonnull %0, ptr noundef nonnull %31, i32 noundef 1)
  %49 = add nuw nsw i32 %.044.us45, 1
  %50 = tail call i32 @hashTypeNext(ptr noundef nonnull %31, i32 noundef 1)
  %.not38.us47 = icmp eq i32 %50, -1
  br i1 %.not38.us47, label %._crit_edge, label %.lr.ph.split.split.us, !llvm.loop !154

.lr.ph.split.split:                               ; preds = %.lr.ph.split, %.lr.ph.split.split
  %.044 = phi i32 [ %.reass, %.lr.ph.split.split ], [ 0, %.lr.ph.split ]
  tail call fastcc void @addHashIteratorCursorToReply(ptr noundef nonnull %0, ptr noundef nonnull %31, i32 noundef 1)
  tail call fastcc void @addHashIteratorCursorToReply(ptr noundef nonnull %0, ptr noundef nonnull %31, i32 noundef 2)
  %.reass = add i32 %.044, 2
  %51 = tail call i32 @hashTypeNext(ptr noundef nonnull %31, i32 noundef 1)
  %.not38 = icmp eq i32 %51, -1
  br i1 %.not38, label %._crit_edge, label %.lr.ph.split.split, !llvm.loop !154

._crit_edge:                                      ; preds = %.lr.ph.split.split, %.lr.ph.split.split.us, %.lr.ph.split.us.split, %.lr.ph.split.us.split.us, %hashTypeInitIterator.exit
  %.0.lcssa = phi i32 [ 0, %hashTypeInitIterator.exit ], [ 0, %.lr.ph.split.us.split.us ], [ %47, %.lr.ph.split.us.split ], [ %49, %.lr.ph.split.split.us ], [ %.reass, %.lr.ph.split.split ]
  %52 = load i32, ptr %35, align 8, !tbaa !113
  %53 = icmp eq i32 %52, 2
  br i1 %53, label %54, label %hashTypeReleaseIterator.exit

54:                                               ; preds = %._crit_edge
  %55 = getelementptr inbounds nuw i8, ptr %31, i64 48
  %56 = load ptr, ptr %55, align 8, !tbaa !115
  tail call void @dictReleaseIterator(ptr noundef %56) #16
  br label %hashTypeReleaseIterator.exit

hashTypeReleaseIterator.exit:                     ; preds = %._crit_edge, %54
  tail call void @zfree(ptr noundef nonnull %31) #16
  %57 = sdiv i32 %.0.lcssa, 2
  %.3 = select i1 %or.cond.not, i32 %57, i32 %.0.lcssa
  %58 = icmp eq i32 %.3, %23
  br i1 %58, label %60, label %59, !prof !14

59:                                               ; preds = %hashTypeReleaseIterator.exit
  tail call void @_serverAssert(ptr noundef nonnull @.str.54, ptr noundef nonnull @.str.2, i32 noundef 3057) #16
  tail call void @abort() #17
  unreachable

60:                                               ; preds = %hashTypeReleaseIterator.exit, %11, %19, %25
  ret void
}